(lp0
(lp1
I16
aI25
aI25
aI40
aI75
aI150
aI350
aa(lp2
F0.30706249999999996
aF0.28900000000000003
aF0.3
aF0.2
aF0.15
aF0.1
aF0.05
aa(lp3
I14
aI15
aI16
aI18
aI19
aI20
aI22
aaI1
aI23
aI01
aI01
aI01
aI01
aI00
aI00
aI00
aI00
aI00
aI00
aI00
aI00
aI00
aI00
aI00
aI1758
aI893
aI1
aI31
aI01
aI01
aI00
aI00
aI00
aI00
aI00
a(lp4
I4600
aI3000
aI600
aa.